target datalayout = "e-m:e-p270:32:32-p271:32:32-p272:64:64-i64:64-i128:128-f80:128-n8:16:32:64-S128"
target triple = "x86_64-pc-linux-gnu"

@__const.avifGetExifTiffHeaderOffset.tiffHeaderBE = private unnamed_addr constant [4 x i8] c"MM\00*", align 1
@__const.avifGetExifTiffHeaderOffset.tiffHeaderLE = private unnamed_addr constant [4 x i8] c"II*\00", align 1

; Function Attrs: nounwind uwtable
define hidden i32 @avifGetExifTiffHeaderOffset(ptr noundef %0, i64 noundef %1, ptr noundef %2) #0 {
  %4 = alloca i32, align 4
  %5 = alloca ptr, align 8
  %6 = alloca i64, align 8
  %7 = alloca ptr, align 8
  %8 = alloca [4 x i8], align 1
  %9 = alloca [4 x i8], align 1
  store ptr %0, ptr %5, align 8
  store i64 %1, ptr %6, align 8
  store ptr %2, ptr %7, align 8
  call void @llvm.memcpy.p0.p0.i64(ptr align 1 %8, ptr align 1 @__const.avifGetExifTiffHeaderOffset.tiffHeaderBE, i64 4, i1 false)
  call void @llvm.memcpy.p0.p0.i64(ptr align 1 %9, ptr align 1 @__const.avifGetExifTiffHeaderOffset.tiffHeaderLE, i64 4, i1 false)
  %10 = load i64, ptr %6, align 8
  %11 = icmp ult i64 %10, 4294967295
  br i1 %11, label %12, label %14

12:                                               ; preds = %3
  %13 = load i64, ptr %6, align 8
  br label %15

14:                                               ; preds = %3
  br label %15

15:                                               ; preds = %14, %12
  %16 = phi i64 [ %13, %12 ], [ 4294967295, %14 ]
  store i64 %16, ptr %6, align 8
  %17 = load ptr, ptr %7, align 8
  store i64 0, ptr %17, align 8
  br label %18

18:                                               ; preds = %42, %15
  %19 = load ptr, ptr %7, align 8
  %20 = load i64, ptr %19, align 8
  %21 = add i64 %20, 4
  %22 = load i64, ptr %6, align 8
  %23 = icmp ult i64 %21, %22
  br i1 %23, label %24, label %46

24:                                               ; preds = %18
  %25 = load ptr, ptr %5, align 8
  %26 = load ptr, ptr %7, align 8
  %27 = load i64, ptr %26, align 8
  %28 = getelementptr inbounds i8, ptr %25, i64 %27
  %29 = getelementptr inbounds [4 x i8], ptr %8, i64 0, i64 0
  %30 = call i32 @memcmp(ptr noundef %28, ptr noundef %29, i64 noundef 4) #4
  %31 = icmp ne i32 %30, 0
  br i1 %31, label %32, label %40

32:                                               ; preds = %24
  %33 = load ptr, ptr %5, align 8
  %34 = load ptr, ptr %7, align 8
  %35 = load i64, ptr %34, align 8
  %36 = getelementptr inbounds i8, ptr %33, i64 %35
  %37 = getelementptr inbounds [4 x i8], ptr %9, i64 0, i64 0
  %38 = call i32 @memcmp(ptr noundef %36, ptr noundef %37, i64 noundef 4) #4
  %39 = icmp ne i32 %38, 0
  br i1 %39, label %41, label %40

40:                                               ; preds = %32, %24
  store i32 0, ptr %4, align 4
  br label %47

41:                                               ; preds = %32
  br label %42

42:                                               ; preds = %41
  %43 = load ptr, ptr %7, align 8
  %44 = load i64, ptr %43, align 8
  %45 = add i64 %44, 1
  store i64 %45, ptr %43, align 8
  br label %18, !llvm.loop !4

46:                                               ; preds = %18
  store i32 17, ptr %4, align 4
  br label %47

47:                                               ; preds = %46, %40
  %48 = load i32, ptr %4, align 4
  ret i32 %48
}