; Function Attrs: nofree nounwind memory(argmem: readwrite) uwtable
define hidden range(i32 0, 18) i32 @avifGetExifTiffHeaderOffset(ptr nocapture noundef readonly %0, i64 noundef %1, ptr nocapture noundef writeonly %2) local_unnamed_addr #0 {
  store i64 0, ptr %2, align 8
  %4 = icmp ugt i64 %1, 4
  br i1 %4, label %.lr.ph.preheader, label %._crit_edge

.lr.ph.preheader:                                 ; preds = %3
  %5 = tail call i64 @llvm.umin.i64(i64 %1, i64 4294967295)
  %6 = add nsw i64 %5, -5
  br label %.lr.ph

7:                                                ; preds = %10
  %8 = add nuw nsw i64 %storemerge12, 1
  store i64 %8, ptr %2, align 8
  %exitcond.not = icmp eq i64 %storemerge12, %6
  br i1 %exitcond.not, label %._crit_edge, label %.lr.ph, !llvm.loop !4

.lr.ph:                                           ; preds = %.lr.ph.preheader, %7
  %storemerge12 = phi i64 [ %8, %7 ], [ 0, %.lr.ph.preheader ]
  %9 = getelementptr inbounds i8, ptr %0, i64 %storemerge12
  %bcmp = tail call i32 @bcmp(ptr noundef nonnull dereferenceable(4) %9, ptr noundef nonnull dereferenceable(4) @__const.avifGetExifTiffHeaderOffset.tiffHeaderBE, i64 4)
  %.not = icmp eq i32 %bcmp, 0
  br i1 %.not, label %._crit_edge, label %10

10:                                               ; preds = %.lr.ph
  %bcmp10 = tail call i32 @bcmp(ptr noundef nonnull dereferenceable(4) %9, ptr noundef nonnull dereferenceable(4) @__const.avifGetExifTiffHeaderOffset.tiffHeaderLE, i64 4)
  %.not11 = icmp eq i32 %bcmp10, 0
  br i1 %.not11, label %._crit_edge, label %7

._crit_edge:                                      ; preds = %10, %.lr.ph, %7, %3
  %.0 = phi i32 [ 17, %3 ], [ 17, %7 ], [ 0, %.lr.ph ], [ 0, %10 ]
  ret i32 %.0
}